; Function Attrs: nounwind uwtable
define ptr @zend_rsrc_list_get_rsrc_type(ptr nocapture noundef readonly %0) local_unnamed_addr #0 {
  %2 = getelementptr inbounds i8, ptr %0, i64 16
  %3 = load i32, ptr %2, align 8
  %4 = sext i32 %3 to i64
  %5 = tail call ptr @zend_hash_index_find(ptr noundef nonnull @list_destructors, i64 noundef %4) #14
  %.not = icmp eq ptr %5, null
  br i1 %.not, label %.thread, label %6

6:                                                ; preds = %1
  %7 = load ptr, ptr %5, align 8, !nonnull !4, !noundef !4
  %8 = getelementptr inbounds i8, ptr %7, i64 16
  %9 = load ptr, ptr %8, align 8
  br label %.thread

.thread:                                          ; preds = %1, %6
  %.09 = phi ptr [ %9, %6 ], [ null, %1 ]
  ret ptr %.09
}